; Function Attrs: nounwind uwtable
define void @Ivy_TruthDsdComputePrint(i32 noundef %0) local_unnamed_addr #0 {
  %2 = load ptr, ptr @Ivy_TruthDsdComputePrint.vTree, align 8
  %3 = icmp eq ptr %2, null
  br i1 %3, label %4, label %9

4:                                                ; preds = %1
  %5 = tail call noalias dereferenceable_or_null(16) ptr @malloc(i64 noundef 16) #10
  %6 = getelementptr inbounds nuw i8, ptr %5, i64 4
  store i32 0, ptr %6, align 4
  store i32 16, ptr %5, align 8
  %7 = tail call noalias dereferenceable_or_null(64) ptr @malloc(i64 noundef 64) #10
  %8 = getelementptr inbounds nuw i8, ptr %5, i64 8
  store ptr %7, ptr %8, align 8
  store ptr %5, ptr @Ivy_TruthDsdComputePrint.vTree, align 8
  br label %9

9:                                                ; preds = %4, %1
  %10 = phi ptr [ %5, %4 ], [ %2, %1 ]
  %11 = tail call i32 @Ivy_TruthDsd(i32 noundef %0, ptr noundef nonnull %10)
  %.not = icmp eq i32 %11, 0
  br i1 %.not, label %18, label %12

12:                                               ; preds = %9
  %13 = load ptr, ptr @stdout, align 8
  %14 = load ptr, ptr @Ivy_TruthDsdComputePrint.vTree, align 8
  %15 = tail call i64 @fwrite(ptr nonnull @.str.13, i64 4, i64 1, ptr %13)
  %16 = getelementptr i8, ptr %14, i64 4
  %.val.i = load i32, ptr %16, align 4
  %17 = add nsw i32 %.val.i, -1
  tail call void @Ivy_TruthDsdPrint_rec(ptr noundef %13, i32 noundef %17, ptr noundef %14)
  %fputc.i = tail call i32 @fputc(i32 10, ptr %13)
  br label %19

18:                                               ; preds = %9
  %puts = tail call i32 @puts(ptr nonnull dereferenceable(1) @str.1)
  br label %19

19:                                               ; preds = %18, %12
  ret void
}